target datalayout = "e-m:e-p270:32:32-p271:32:32-p272:64:64-i64:64-i128:128-f80:128-n8:16:32:64-S128"
target triple = "x86_64-pc-linux-gnu"

%struct._GtkTreeIter = type { i32, ptr, ptr, ptr }
%struct.display_data = type { i64, i32, ptr, i8, i32, ptr, ptr, ptr, ptr, ptr, ptr, ptr, ptr }
%struct.popup_info = type { ptr, ptr, i32, i32, ptr, ptr, ptr, %struct._GtkTreeIter, ptr, ptr, i32, i8, ptr, ptr, i32, ptr, ptr, i32, i32 }

@.str.3 = private unnamed_addr constant [9 x i8] c"common.c\00", align 1
@__func__.setup_popup_info = private unnamed_addr constant [17 x i8] c"setup_popup_info\00", align 1

; Function Attrs: nounwind uwtable
define dso_local void @setup_popup_info(ptr noundef %0, ptr noundef %1, i32 noundef %2) #0 {
  %4 = alloca ptr, align 8
  %5 = alloca ptr, align 8
  %6 = alloca i32, align 4
  %7 = alloca i32, align 4
  store ptr %0, ptr %4, align 8
  store ptr %1, ptr %5, align 8
  store i32 %2, ptr %6, align 4
  call void @llvm.lifetime.start.p0(i64 4, ptr %7) #11
  store i32 0, ptr %7, align 4
  %8 = load i32, ptr %6, align 4
  %9 = add nsw i32 %8, 2
  %10 = sext i32 %9 to i64
  %11 = mul i64 96, %10
  %12 = call ptr @slurm_xcalloc(i64 noundef 1, i64 noundef %11, i1 noundef zeroext true, i1 noundef zeroext false, ptr noundef @.str.3, i32 noundef 1528, ptr noundef @__func__.setup_popup_info)
  %13 = load ptr, ptr %4, align 8
  %14 = getelementptr inbounds nuw %struct.popup_info, ptr %13, i32 0, i32 0
  store ptr %12, ptr %14, align 8
  store i32 0, ptr %7, align 4
  br label %15

15:                                               ; preds = %31, %3
  %16 = load i32, ptr %7, align 4
  %17 = load i32, ptr %6, align 4
  %18 = add nsw i32 %17, 1
  %19 = icmp slt i32 %16, %18
  br i1 %19, label %20, label %34

20:                                               ; preds = %15
  %21 = load ptr, ptr %4, align 8
  %22 = getelementptr inbounds nuw %struct.popup_info, ptr %21, i32 0, i32 0
  %23 = load ptr, ptr %22, align 8
  %24 = load i32, ptr %7, align 4
  %25 = sext i32 %24 to i64
  %26 = getelementptr inbounds %struct.display_data, ptr %23, i64 %25
  %27 = load ptr, ptr %5, align 8
  %28 = load i32, ptr %7, align 4
  %29 = sext i32 %28 to i64
  %30 = getelementptr inbounds %struct.display_data, ptr %27, i64 %29
  call void @llvm.memcpy.p0.p0.i64(ptr align 8 %26, ptr align 8 %30, i64 96, i1 false)
  br label %31

31:                                               ; preds = %20
  %32 = load i32, ptr %7, align 4
  %33 = add nsw i32 %32, 1
  store i32 %33, ptr %7, align 4
  br label %15, !llvm.loop !43

34:                                               ; preds = %15
  call void @llvm.lifetime.end.p0(i64 4, ptr %7) #11
  ret void
}