; Function Attrs: nounwind uwtable
define dso_local void @setup_popup_info(ptr noundef captures(none) initializes((0, 8)) %0, ptr noundef readonly captures(none) %1, i32 noundef %2) local_unnamed_addr #2 {
  %4 = add nsw i32 %2, 2
  %5 = sext i32 %4 to i64
  %6 = mul nsw i64 %5, 96
  %7 = tail call ptr @slurm_xcalloc(i64 noundef 1, i64 noundef %6, i1 noundef zeroext true, i1 noundef zeroext false, ptr noundef nonnull @.str.3, i32 noundef 1528, ptr noundef nonnull @__func__.setup_popup_info) #16
  store ptr %7, ptr %0, align 8
  %.not8 = icmp slt i32 %2, 0
  br i1 %.not8, label %._crit_edge, label %.lr.ph.preheader

.lr.ph.preheader:                                 ; preds = %3
  %8 = add nuw i32 %2, 1
  %wide.trip.count = zext i32 %8 to i64
  br label %.lr.ph

.lr.ph:                                           ; preds = %.lr.ph.preheader, %.lr.ph
  %indvars.iv = phi i64 [ 0, %.lr.ph.preheader ], [ %indvars.iv.next, %.lr.ph ]
  %9 = load ptr, ptr %0, align 8
  %10 = getelementptr inbounds nuw %struct.display_data, ptr %9, i64 %indvars.iv
  %11 = getelementptr inbounds nuw %struct.display_data, ptr %1, i64 %indvars.iv
  tail call void @llvm.memcpy.p0.p0.i64(ptr noundef nonnull align 8 dereferenceable(96) %10, ptr noundef nonnull align 8 dereferenceable(96) %11, i64 96, i1 false)
  %indvars.iv.next = add nuw nsw i64 %indvars.iv, 1
  %exitcond.not = icmp eq i64 %indvars.iv.next, %wide.trip.count
  br i1 %exitcond.not, label %._crit_edge, label %.lr.ph, !llvm.loop !42

._crit_edge:                                      ; preds = %.lr.ph, %3
  ret void
}